; Function Attrs: nounwind uwtable
define ptr @Pdr_ManCreateSolver(ptr noundef %0, i32 noundef %1) local_unnamed_addr #0 {
  %3 = load ptr, ptr %0, align 8
  %4 = getelementptr inbounds nuw i8, ptr %3, i64 32
  %5 = load i32, ptr %4, align 8
  %6 = sitofp i32 %5 to double
  %7 = tail call ptr @zsat_solver_new_seed(double noundef %6) #8
  %8 = icmp eq i32 %1, 0
  %9 = zext i1 %8 to i32
  %10 = tail call ptr @Pdr_ManNewSolver(ptr noundef %7, ptr noundef nonnull %0, i32 noundef %1, i32 noundef %9) #8
  %11 = getelementptr inbounds nuw i8, ptr %0, i64 104
  %12 = load ptr, ptr %11, align 8
  %13 = getelementptr inbounds nuw i8, ptr %12, i64 4
  %14 = load i32, ptr %13, align 4
  %15 = load i32, ptr %12, align 8
  %16 = icmp eq i32 %14, %15
  br i1 %16, label %17, label %.Vec_PtrGrow.exit11_crit_edge.i

.Vec_PtrGrow.exit11_crit_edge.i:                  ; preds = %2
  %.phi.trans.insert.i = getelementptr inbounds nuw i8, ptr %12, i64 8
  %.pre.i = load ptr, ptr %.phi.trans.insert.i, align 8
  br label %Vec_PtrPush.exit

17:                                               ; preds = %2
  %18 = icmp slt i32 %14, 16
  br i1 %18, label %19, label %27

19:                                               ; preds = %17
  %20 = getelementptr inbounds nuw i8, ptr %12, i64 8
  %21 = load ptr, ptr %20, align 8
  %.not9.i.i = icmp eq ptr %21, null
  br i1 %.not9.i.i, label %24, label %22

22:                                               ; preds = %19
  %23 = tail call dereferenceable_or_null(128) ptr @realloc(ptr noundef nonnull %21, i64 noundef 128) #9
  br label %Vec_PtrGrow.exit.i

24:                                               ; preds = %19
  %25 = tail call noalias dereferenceable_or_null(128) ptr @malloc(i64 noundef 128) #10
  br label %Vec_PtrGrow.exit.i

Vec_PtrGrow.exit.i:                               ; preds = %24, %22
  %26 = phi ptr [ %23, %22 ], [ %25, %24 ]
  store ptr %26, ptr %20, align 8
  store i32 16, ptr %12, align 8
  br label %Vec_PtrPush.exit

27:                                               ; preds = %17
  %28 = shl nuw nsw i32 %14, 1
  %29 = getelementptr inbounds nuw i8, ptr %12, i64 8
  %30 = load ptr, ptr %29, align 8
  %.not9.i10.i = icmp eq ptr %30, null
  %31 = zext nneg i32 %28 to i64
  %32 = shl nuw nsw i64 %31, 3
  br i1 %.not9.i10.i, label %35, label %33

33:                                               ; preds = %27
  %34 = tail call ptr @realloc(ptr noundef nonnull %30, i64 noundef %32) #9
  br label %37

35:                                               ; preds = %27
  %36 = tail call noalias ptr @malloc(i64 noundef %32) #10
  br label %37

37:                                               ; preds = %35, %33
  %38 = phi ptr [ %34, %33 ], [ %36, %35 ]
  store ptr %38, ptr %29, align 8
  store i32 %28, ptr %12, align 8
  br label %Vec_PtrPush.exit

Vec_PtrPush.exit:                                 ; preds = %.Vec_PtrGrow.exit11_crit_edge.i, %Vec_PtrGrow.exit.i, %37
  %39 = phi ptr [ %.pre.i, %.Vec_PtrGrow.exit11_crit_edge.i ], [ %38, %37 ], [ %26, %Vec_PtrGrow.exit.i ]
  %40 = load i32, ptr %13, align 4
  %41 = add nsw i32 %40, 1
  store i32 %41, ptr %13, align 4
  %42 = sext i32 %40 to i64
  %43 = getelementptr inbounds ptr, ptr %39, i64 %42
  store ptr %10, ptr %43, align 8
  %44 = getelementptr inbounds nuw i8, ptr %0, i64 112
  %45 = load ptr, ptr %44, align 8
  %46 = getelementptr inbounds nuw i8, ptr %45, i64 4
  %47 = load i32, ptr %46, align 4
  %48 = add i32 %1, 1
  %.not.not.i = icmp sgt i32 %47, %1
  br i1 %.not.not.i, label %Vec_VecExpand.exit, label %49

49:                                               ; preds = %Vec_PtrPush.exit
  %50 = load i32, ptr %45, align 8
  %.not.i.not.i = icmp sgt i32 %50, %1
  br i1 %.not.i.not.i, label %Vec_PtrGrow.exit.i21, label %51

51:                                               ; preds = %49
  %52 = getelementptr inbounds nuw i8, ptr %45, i64 8
  %53 = load ptr, ptr %52, align 8
  %.not9.i.i19 = icmp eq ptr %53, null
  %54 = sext i32 %48 to i64
  %55 = shl nsw i64 %54, 3
  br i1 %.not9.i.i19, label %58, label %56

56:                                               ; preds = %51
  %57 = tail call ptr @realloc(ptr noundef nonnull %53, i64 noundef %55) #9
  %.pre.pre.i = load i32, ptr %46, align 4
  br label %60

58:                                               ; preds = %51
  %59 = tail call noalias ptr @malloc(i64 noundef %55) #10
  br label %60

60:                                               ; preds = %58, %56
  %.pre.i20 = phi i32 [ %.pre.pre.i, %56 ], [ %47, %58 ]
  %61 = phi ptr [ %57, %56 ], [ %59, %58 ]
  store ptr %61, ptr %52, align 8
  store i32 %48, ptr %45, align 8
  br label %Vec_PtrGrow.exit.i21

Vec_PtrGrow.exit.i21:                             ; preds = %60, %49
  %62 = phi i32 [ %47, %49 ], [ %.pre.i20, %60 ]
  %.not12.i = icmp sgt i32 %62, %1
  br i1 %.not12.i, label %._crit_edge.i, label %.lr.ph.i

.lr.ph.i:                                         ; preds = %Vec_PtrGrow.exit.i21
  %63 = getelementptr inbounds nuw i8, ptr %45, i64 8
  %64 = sext i32 %62 to i64
  br label %65

65:                                               ; preds = %65, %.lr.ph.i
  %indvars.iv.i = phi i64 [ %64, %.lr.ph.i ], [ %indvars.iv.next.i, %65 ]
  %calloc.i.i = tail call noalias noundef dereferenceable_or_null(16) ptr @calloc(i64 1, i64 16)
  %66 = load ptr, ptr %63, align 8
  %67 = getelementptr inbounds ptr, ptr %66, i64 %indvars.iv.i
  store ptr %calloc.i.i, ptr %67, align 8
  %indvars.iv.next.i = add nsw i64 %indvars.iv.i, 1
  %lftr.wideiv.i = trunc i64 %indvars.iv.next.i to i32
  %exitcond.not.i = icmp eq i32 %48, %lftr.wideiv.i
  br i1 %exitcond.not.i, label %._crit_edge.i, label %65, !llvm.loop !4

._crit_edge.i:                                    ; preds = %65, %Vec_PtrGrow.exit.i21
  store i32 %48, ptr %46, align 4
  br label %Vec_VecExpand.exit

Vec_VecExpand.exit:                               ; preds = %Vec_PtrPush.exit, %._crit_edge.i
  %68 = getelementptr inbounds nuw i8, ptr %0, i64 136
  %69 = load ptr, ptr %68, align 8
  %70 = getelementptr inbounds nuw i8, ptr %69, i64 4
  %71 = load i32, ptr %70, align 4
  %72 = load i32, ptr %69, align 8
  %73 = icmp eq i32 %71, %72
  br i1 %73, label %74, label %.Vec_IntGrow.exit10_crit_edge.i

.Vec_IntGrow.exit10_crit_edge.i:                  ; preds = %Vec_VecExpand.exit
  %.phi.trans.insert.i22 = getelementptr inbounds nuw i8, ptr %69, i64 8
  %.pre.i23 = load ptr, ptr %.phi.trans.insert.i22, align 8
  br label %Vec_IntPush.exit

74:                                               ; preds = %Vec_VecExpand.exit
  %75 = icmp slt i32 %71, 16
  br i1 %75, label %76, label %84

76:                                               ; preds = %74
  %77 = getelementptr inbounds nuw i8, ptr %69, i64 8
  %78 = load ptr, ptr %77, align 8
  %.not9.i.i24 = icmp eq ptr %78, null
  br i1 %.not9.i.i24, label %81, label %79

79:                                               ; preds = %76
  %80 = tail call dereferenceable_or_null(64) ptr @realloc(ptr noundef nonnull %78, i64 noundef 64) #9
  br label %Vec_IntGrow.exit.i

81:                                               ; preds = %76
  %82 = tail call noalias dereferenceable_or_null(64) ptr @malloc(i64 noundef 64) #10
  br label %Vec_IntGrow.exit.i

Vec_IntGrow.exit.i:                               ; preds = %81, %79
  %83 = phi ptr [ %80, %79 ], [ %82, %81 ]
  store ptr %83, ptr %77, align 8
  store i32 16, ptr %69, align 8
  br label %Vec_IntPush.exit

84:                                               ; preds = %74
  %85 = shl nuw nsw i32 %71, 1
  %86 = getelementptr inbounds nuw i8, ptr %69, i64 8
  %87 = load ptr, ptr %86, align 8
  %.not9.i9.i = icmp eq ptr %87, null
  %88 = zext nneg i32 %85 to i64
  %89 = shl nuw nsw i64 %88, 2
  br i1 %.not9.i9.i, label %92, label %90

90:                                               ; preds = %84
  %91 = tail call ptr @realloc(ptr noundef nonnull %87, i64 noundef %89) #9
  br label %94

92:                                               ; preds = %84
  %93 = tail call noalias ptr @malloc(i64 noundef %89) #10
  br label %94

94:                                               ; preds = %92, %90
  %95 = phi ptr [ %91, %90 ], [ %93, %92 ]
  store ptr %95, ptr %86, align 8
  store i32 %85, ptr %69, align 8
  br label %Vec_IntPush.exit

Vec_IntPush.exit:                                 ; preds = %.Vec_IntGrow.exit10_crit_edge.i, %Vec_IntGrow.exit.i, %94
  %96 = phi ptr [ %.pre.i23, %.Vec_IntGrow.exit10_crit_edge.i ], [ %95, %94 ], [ %83, %Vec_IntGrow.exit.i ]
  %97 = load i32, ptr %70, align 4
  %98 = add nsw i32 %97, 1
  store i32 %98, ptr %70, align 4
  %99 = sext i32 %97 to i64
  %100 = getelementptr inbounds i32, ptr %96, i64 %99
  store i32 0, ptr %100, align 4
  %101 = getelementptr inbounds nuw i8, ptr %0, i64 8
  %102 = load ptr, ptr %101, align 8
  %103 = getelementptr i8, ptr %102, i64 112
  %.val25 = load i32, ptr %103, align 8
  %104 = icmp sgt i32 %.val25, 0
  br i1 %104, label %.lr.ph, label %.critedge

.lr.ph:                                           ; preds = %Vec_IntPush.exit, %.lr.ph
  %indvars.iv = phi i64 [ %indvars.iv.next, %.lr.ph ], [ 0, %Vec_IntPush.exit ]
  %105 = phi ptr [ %112, %.lr.ph ], [ %102, %Vec_IntPush.exit ]
  %106 = getelementptr inbounds nuw i8, ptr %105, i64 24
  %107 = load ptr, ptr %106, align 8
  %108 = getelementptr i8, ptr %107, i64 8
  %.val18 = load ptr, ptr %108, align 8
  %109 = getelementptr inbounds nuw ptr, ptr %.val18, i64 %indvars.iv
  %110 = load ptr, ptr %109, align 8
  %111 = tail call i32 @Pdr_ObjSatVar(ptr noundef nonnull %0, i32 noundef %1, i32 noundef 1, ptr noundef %110) #8
  %indvars.iv.next = add nuw nsw i64 %indvars.iv, 1
  %112 = load ptr, ptr %101, align 8
  %113 = getelementptr i8, ptr %112, i64 112
  %.val = load i32, ptr %113, align 8
  %114 = sext i32 %.val to i64
  %115 = icmp slt i64 %indvars.iv.next, %114
  br i1 %115, label %.lr.ph, label %.critedge, !llvm.loop !6

.critedge:                                        ; preds = %.lr.ph, %Vec_IntPush.exit
  ret ptr %10
}